target datalayout = "e-m:e-p270:32:32-p271:32:32-p272:64:64-i64:64-i128:128-f80:128-n8:16:32:64-S128"
target triple = "x86_64-pc-linux-gnu"

%struct.PgBenchValue = type { i32, %union.anon }
%union.anon = type { i64 }

@.str.234 = private unnamed_addr constant [5 x i8] c"none\00", align 1
@.str.394 = private unnamed_addr constant [5 x i8] c"null\00", align 1
@.str.401 = private unnamed_addr constant [28 x i8] c"cannot coerce %s to boolean\00", align 1
@.str.402 = private unnamed_addr constant [4 x i8] c"int\00", align 1
@.str.403 = private unnamed_addr constant [7 x i8] c"double\00", align 1
@.str.404 = private unnamed_addr constant [8 x i8] c"boolean\00", align 1

; Function Attrs: nounwind uwtable
define internal ptr @valueTypeName(ptr noundef %0) #0 {
  %2 = alloca ptr, align 8
  %3 = alloca ptr, align 8
  store ptr %0, ptr %3, align 8
  %4 = load ptr, ptr %3, align 8
  %5 = getelementptr inbounds nuw %struct.PgBenchValue, ptr %4, i32 0, i32 0
  %6 = load i32, ptr %5, align 8
  %7 = icmp eq i32 %6, 0
  br i1 %7, label %8, label %9

8:                                                ; preds = %1
  store ptr @.str.234, ptr %2, align 8
  br label %34

9:                                                ; preds = %1
  %10 = load ptr, ptr %3, align 8
  %11 = getelementptr inbounds nuw %struct.PgBenchValue, ptr %10, i32 0, i32 0
  %12 = load i32, ptr %11, align 8
  %13 = icmp eq i32 %12, 1
  br i1 %13, label %14, label %15

14:                                               ; preds = %9
  store ptr @.str.394, ptr %2, align 8
  br label %34

15:                                               ; preds = %9
  %16 = load ptr, ptr %3, align 8
  %17 = getelementptr inbounds nuw %struct.PgBenchValue, ptr %16, i32 0, i32 0
  %18 = load i32, ptr %17, align 8
  %19 = icmp eq i32 %18, 2
  br i1 %19, label %20, label %21

20:                                               ; preds = %15
  store ptr @.str.402, ptr %2, align 8
  br label %34

21:                                               ; preds = %15
  %22 = load ptr, ptr %3, align 8
  %23 = getelementptr inbounds nuw %struct.PgBenchValue, ptr %22, i32 0, i32 0
  %24 = load i32, ptr %23, align 8
  %25 = icmp eq i32 %24, 3
  br i1 %25, label %26, label %27

26:                                               ; preds = %21
  store ptr @.str.403, ptr %2, align 8
  br label %34

27:                                               ; preds = %21
  %28 = load ptr, ptr %3, align 8
  %29 = getelementptr inbounds nuw %struct.PgBenchValue, ptr %28, i32 0, i32 0
  %30 = load i32, ptr %29, align 8
  %31 = icmp eq i32 %30, 4
  br i1 %31, label %32, label %33

32:                                               ; preds = %27
  store ptr @.str.404, ptr %2, align 8
  br label %34

33:                                               ; preds = %27
  store ptr null, ptr %2, align 8
  br label %34

34:                                               ; preds = %33, %32, %26, %20, %14, %8
  %35 = load ptr, ptr %2, align 8
  ret ptr %35
}

; Function Attrs: nounwind uwtable
define internal zeroext i1 @coerceToBool(ptr noundef %0, ptr noundef %1) #0 {
  %3 = alloca i1, align 1
  %4 = alloca ptr, align 8
  %5 = alloca ptr, align 8
  store ptr %0, ptr %4, align 8
  store ptr %1, ptr %5, align 8
  %6 = load ptr, ptr %4, align 8
  %7 = getelementptr inbounds nuw %struct.PgBenchValue, ptr %6, i32 0, i32 0
  %8 = load i32, ptr %7, align 8
  %9 = icmp eq i32 %8, 4
  br i1 %9, label %10, label %17

10:                                               ; preds = %2
  %11 = load ptr, ptr %4, align 8
  %12 = getelementptr inbounds nuw %struct.PgBenchValue, ptr %11, i32 0, i32 1
  %13 = load i8, ptr %12, align 8, !range !8, !noundef !9
  %14 = trunc i8 %13 to i1
  %15 = load ptr, ptr %5, align 8
  %16 = zext i1 %14 to i8
  store i8 %16, ptr %15, align 1
  store i1 true, ptr %3, align 1
  br label %21

17:                                               ; preds = %2
  %18 = load ptr, ptr %4, align 8
  %19 = call ptr @valueTypeName(ptr noundef %18)
  call void (i32, i32, ptr, ...) @pg_log_generic(i32 noundef 4, i32 noundef 0, ptr noundef @.str.401, ptr noundef %19)
  %20 = load ptr, ptr %5, align 8
  store i8 0, ptr %20, align 1
  store i1 false, ptr %3, align 1
  br label %21

21:                                               ; preds = %17, %10
  %22 = load i1, ptr %3, align 1
  ret i1 %22
}