; Function Attrs: nounwind uwtable
define internal fastcc noundef zeroext i1 @coerceToBool(i32 %.0.val, i8 %.8.val, ptr noundef nonnull writeonly captures(none) initializes((0, 1)) %0) unnamed_addr #0 {
  %2 = icmp eq i32 %.0.val, 4
  br i1 %2, label %6, label %3

3:                                                ; preds = %1
  %4 = icmp ult i32 %.0.val, 4
  br i1 %4, label %switch.lookup, label %valueTypeName.exit

switch.lookup:                                    ; preds = %3
  %5 = zext nneg i32 %.0.val to i64
  %switch.gep = getelementptr inbounds nuw [4 x ptr], ptr @switch.table.coerceToBool, i64 0, i64 %5
  %switch.load = load ptr, ptr %switch.gep, align 8
  br label %valueTypeName.exit

valueTypeName.exit:                               ; preds = %3, %switch.lookup
  %.0.i = phi ptr [ %switch.load, %switch.lookup ], [ null, %3 ]
  tail call void (i32, i32, ptr, ...) @pg_log_generic(i32 noundef 4, i32 noundef 0, ptr noundef nonnull @.str.401, ptr noundef %.0.i) #25
  br label %6

6:                                                ; preds = %1, %valueTypeName.exit
  %storemerge = phi i8 [ 0, %valueTypeName.exit ], [ %.8.val, %1 ]
  store i8 %storemerge, ptr %0, align 1
  ret i1 %2
}